target datalayout = "e-m:e-p270:32:32-p271:32:32-p272:64:64-i64:64-i128:128-f80:128-n8:16:32:64-S128"
target triple = "x86_64-pc-linux-gnu"

%struct.redisObject = type { i32, i32, ptr }
%struct.sdshdr8 = type { i8, i8, i8, [0 x i8] }
%struct.sdshdr16 = type <{ i16, i16, i8, [0 x i8] }>
%struct.sdshdr32 = type <{ i32, i32, i8, [0 x i8] }>
%struct.sdshdr64 = type <{ i64, i64, i8, [0 x i8] }>

@.str.12 = private unnamed_addr constant [6 x i8] c"rdb.c\00", align 1
@.str.13 = private unnamed_addr constant [22 x i8] c"sdsEncodedObject(obj)\00", align 1

; Function Attrs: inlinehint nounwind uwtable
define internal i64 @sdslen(ptr noundef %0) #6 {
  %2 = alloca i64, align 8
  %3 = alloca ptr, align 8
  %4 = alloca i8, align 1
  %5 = alloca i32, align 4
  store ptr %0, ptr %3, align 8, !tbaa !9
  call void @llvm.lifetime.start.p0(i64 1, ptr %4) #15
  %6 = load ptr, ptr %3, align 8, !tbaa !9
  %7 = getelementptr inbounds i8, ptr %6, i64 -1
  %8 = load i8, ptr %7, align 1, !tbaa !65
  store i8 %8, ptr %4, align 1, !tbaa !65
  %9 = load i8, ptr %4, align 1, !tbaa !65
  %10 = zext i8 %9 to i32
  %11 = and i32 %10, 7
  switch i32 %11, label %40 [
    i32 0, label %12
    i32 1, label %17
    i32 2, label %23
    i32 3, label %29
    i32 4, label %35
  ]

12:                                               ; preds = %1
  %13 = load i8, ptr %4, align 1, !tbaa !65
  %14 = zext i8 %13 to i32
  %15 = ashr i32 %14, 3
  %16 = sext i32 %15 to i64
  store i64 %16, ptr %2, align 8
  store i32 1, ptr %5, align 4
  br label %41

17:                                               ; preds = %1
  %18 = load ptr, ptr %3, align 8, !tbaa !9
  %19 = getelementptr inbounds i8, ptr %18, i64 -3
  %20 = getelementptr inbounds nuw %struct.sdshdr8, ptr %19, i32 0, i32 0
  %21 = load i8, ptr %20, align 1, !tbaa !65
  %22 = zext i8 %21 to i64
  store i64 %22, ptr %2, align 8
  store i32 1, ptr %5, align 4
  br label %41

23:                                               ; preds = %1
  %24 = load ptr, ptr %3, align 8, !tbaa !9
  %25 = getelementptr inbounds i8, ptr %24, i64 -5
  %26 = getelementptr inbounds nuw %struct.sdshdr16, ptr %25, i32 0, i32 0
  %27 = load i16, ptr %26, align 1, !tbaa !73
  %28 = zext i16 %27 to i64
  store i64 %28, ptr %2, align 8
  store i32 1, ptr %5, align 4
  br label %41

29:                                               ; preds = %1
  %30 = load ptr, ptr %3, align 8, !tbaa !9
  %31 = getelementptr inbounds i8, ptr %30, i64 -9
  %32 = getelementptr inbounds nuw %struct.sdshdr32, ptr %31, i32 0, i32 0
  %33 = load i32, ptr %32, align 1, !tbaa !5
  %34 = zext i32 %33 to i64
  store i64 %34, ptr %2, align 8
  store i32 1, ptr %5, align 4
  br label %41

35:                                               ; preds = %1
  %36 = load ptr, ptr %3, align 8, !tbaa !9
  %37 = getelementptr inbounds i8, ptr %36, i64 -17
  %38 = getelementptr inbounds nuw %struct.sdshdr64, ptr %37, i32 0, i32 0
  %39 = load i64, ptr %38, align 1, !tbaa !56
  store i64 %39, ptr %2, align 8
  store i32 1, ptr %5, align 4
  br label %41

40:                                               ; preds = %1
  store i64 0, ptr %2, align 8
  store i32 1, ptr %5, align 4
  br label %41

41:                                               ; preds = %40, %35, %29, %23, %17, %12
  call void @llvm.lifetime.end.p0(i64 1, ptr %4) #15
  %42 = load i64, ptr %2, align 8
  ret i64 %42
}

; Function Attrs: nounwind uwtable
define dso_local i64 @rdbSaveStringObject(ptr noundef %0, ptr noundef %1) #0 {
  %3 = alloca i64, align 8
  %4 = alloca ptr, align 8
  %5 = alloca ptr, align 8
  store ptr %0, ptr %4, align 8, !tbaa !53
  store ptr %1, ptr %5, align 8, !tbaa !76
  %6 = load ptr, ptr %5, align 8, !tbaa !76
  %7 = load i32, ptr %6, align 8
  %8 = lshr i32 %7, 4
  %9 = and i32 %8, 15
  %10 = icmp eq i32 %9, 1
  br i1 %10, label %11, label %18

11:                                               ; preds = %2
  %12 = load ptr, ptr %4, align 8, !tbaa !53
  %13 = load ptr, ptr %5, align 8, !tbaa !76
  %14 = getelementptr inbounds nuw %struct.redisObject, ptr %13, i32 0, i32 2
  %15 = load ptr, ptr %14, align 8, !tbaa !77
  %16 = ptrtoint ptr %15 to i64
  %17 = call i64 @rdbSaveLongLongAsStringObject(ptr noundef %12, i64 noundef %16)
  store i64 %17, ptr %3, align 8
  br label %52

18:                                               ; preds = %2
  %19 = load ptr, ptr %5, align 8, !tbaa !76
  %20 = load i32, ptr %19, align 8
  %21 = lshr i32 %20, 4
  %22 = and i32 %21, 15
  %23 = icmp eq i32 %22, 0
  br i1 %23, label %30, label %24

24:                                               ; preds = %18
  %25 = load ptr, ptr %5, align 8, !tbaa !76
  %26 = load i32, ptr %25, align 8
  %27 = lshr i32 %26, 4
  %28 = and i32 %27, 15
  %29 = icmp eq i32 %28, 8
  br label %30

30:                                               ; preds = %24, %18
  %31 = phi i1 [ true, %18 ], [ %29, %24 ]
  %32 = xor i1 %31, true
  %33 = xor i1 %32, true
  %34 = zext i1 %33 to i32
  %35 = sext i32 %34 to i64
  %36 = call i64 @llvm.expect.i64(i64 %35, i64 1)
  %37 = icmp ne i64 %36, 0
  br i1 %37, label %38, label %39

38:                                               ; preds = %30
  br label %42

39:                                               ; preds = %30
  %40 = load ptr, ptr %5, align 8, !tbaa !76
  call void @_serverAssertWithInfo(ptr noundef null, ptr noundef %40, ptr noundef @.str.13, ptr noundef @.str.12, i32 noundef 497)
  call void @abort() #16
  unreachable

41:                                               ; No predecessors!
  br label %42

42:                                               ; preds = %41, %38
  %43 = load ptr, ptr %4, align 8, !tbaa !53
  %44 = load ptr, ptr %5, align 8, !tbaa !76
  %45 = getelementptr inbounds nuw %struct.redisObject, ptr %44, i32 0, i32 2
  %46 = load ptr, ptr %45, align 8, !tbaa !77
  %47 = load ptr, ptr %5, align 8, !tbaa !76
  %48 = getelementptr inbounds nuw %struct.redisObject, ptr %47, i32 0, i32 2
  %49 = load ptr, ptr %48, align 8, !tbaa !77
  %50 = call i64 @sdslen(ptr noundef %49)
  %51 = call i64 @rdbSaveRawString(ptr noundef %43, ptr noundef %46, i64 noundef %50)
  store i64 %51, ptr %3, align 8
  br label %52

52:                                               ; preds = %42, %11
  %53 = load i64, ptr %3, align 8
  ret i64 %53
}