; Function Attrs: nounwind uwtable
define dso_local i64 @rdbSaveStringObject(ptr noundef %0, ptr noundef %1) local_unnamed_addr #0 {
  %3 = load i32, ptr %1, align 8
  %4 = lshr i32 %3, 4
  %5 = and i32 %4, 15
  switch i32 %5, label %.critedge [
    i32 1, label %6
    i32 0, label %switch.edge
    i32 8, label %switch.edge
  ]

6:                                                ; preds = %2
  %7 = getelementptr inbounds nuw i8, ptr %1, i64 8
  %8 = load ptr, ptr %7, align 8, !tbaa !65
  %9 = ptrtoint ptr %8 to i64
  %10 = tail call i64 @rdbSaveLongLongAsStringObject(ptr noundef %0, i64 noundef %9)
  br label %36

.critedge:                                        ; preds = %2
  tail call void @_serverAssertWithInfo(ptr noundef null, ptr noundef nonnull %1, ptr noundef nonnull @.str.13, ptr noundef nonnull @.str.12, i32 noundef 497) #23
  tail call void @abort() #26
  unreachable

switch.edge:                                      ; preds = %2, %2
  %11 = getelementptr inbounds nuw i8, ptr %1, i64 8
  %12 = load ptr, ptr %11, align 8, !tbaa !65
  %13 = getelementptr inbounds i8, ptr %12, i64 -1
  %14 = load i8, ptr %13, align 1, !tbaa !59
  %15 = zext i8 %14 to i32
  %16 = and i32 %15, 7
  switch i32 %16, label %sdslen.exit [
    i32 0, label %17
    i32 1, label %20
    i32 2, label %24
    i32 3, label %28
    i32 4, label %32
  ]

17:                                               ; preds = %switch.edge
  %18 = lshr i32 %15, 3
  %19 = zext nneg i32 %18 to i64
  br label %sdslen.exit

20:                                               ; preds = %switch.edge
  %21 = getelementptr inbounds i8, ptr %12, i64 -3
  %22 = load i8, ptr %21, align 1, !tbaa !59
  %23 = zext i8 %22 to i64
  br label %sdslen.exit

24:                                               ; preds = %switch.edge
  %25 = getelementptr inbounds i8, ptr %12, i64 -5
  %26 = load i16, ptr %25, align 1, !tbaa !67
  %27 = zext i16 %26 to i64
  br label %sdslen.exit

28:                                               ; preds = %switch.edge
  %29 = getelementptr inbounds i8, ptr %12, i64 -9
  %30 = load i32, ptr %29, align 1, !tbaa !51
  %31 = zext i32 %30 to i64
  br label %sdslen.exit

32:                                               ; preds = %switch.edge
  %33 = getelementptr inbounds i8, ptr %12, i64 -17
  %34 = load i64, ptr %33, align 1, !tbaa !61
  br label %sdslen.exit

sdslen.exit:                                      ; preds = %switch.edge, %17, %20, %24, %28, %32
  %.0.i = phi i64 [ %34, %32 ], [ %31, %28 ], [ %27, %24 ], [ %23, %20 ], [ %19, %17 ], [ 0, %switch.edge ]
  %35 = tail call i64 @rdbSaveRawString(ptr noundef %0, ptr noundef nonnull %12, i64 noundef %.0.i)
  br label %36

36:                                               ; preds = %sdslen.exit, %6
  %.0 = phi i64 [ %10, %6 ], [ %35, %sdslen.exit ]
  ret i64 %.0
}